target datalayout = "e-m:e-p270:32:32-p271:32:32-p272:64:64-i64:64-i128:128-f80:128-n8:16:32:64-S128"
target triple = "x86_64-pc-linux-gnu"

%struct.OSQPMatrix_ = type { ptr, i32 }

@.str = private unnamed_addr constant [14 x i8] c"ERROR in %s: \00", align 1
@__func__.OSQPMatrix_triu_to_symm = private unnamed_addr constant [24 x i8] c"OSQPMatrix_triu_to_symm\00", align 1
@.str.1 = private unnamed_addr constant [34 x i8] c"input matrix not upper triangular\00", align 1
@.str.2 = private unnamed_addr constant [2 x i8] c"\0A\00", align 1

; Function Attrs: nounwind uwtable
define ptr @OSQPMatrix_triu_to_symm(ptr noundef %0) #0 {
  %2 = alloca ptr, align 8
  %3 = alloca ptr, align 8
  %4 = alloca ptr, align 8
  store ptr %0, ptr %3, align 8
  %5 = load ptr, ptr %3, align 8
  %6 = getelementptr inbounds %struct.OSQPMatrix_, ptr %5, i32 0, i32 1
  %7 = load i32, ptr %6, align 8
  %8 = icmp eq i32 %7, 1
  br i1 %8, label %9, label %31

9:                                                ; preds = %1
  %10 = call noalias ptr @malloc(i64 noundef 16) #4
  store ptr %10, ptr %4, align 8
  %11 = load ptr, ptr %4, align 8
  %12 = icmp ne ptr %11, null
  br i1 %12, label %14, label %13

13:                                               ; preds = %9
  store ptr null, ptr %2, align 8
  br label %35

14:                                               ; preds = %9
  %15 = load ptr, ptr %4, align 8
  %16 = getelementptr inbounds %struct.OSQPMatrix_, ptr %15, i32 0, i32 1
  store i32 0, ptr %16, align 8
  %17 = load ptr, ptr %3, align 8
  %18 = getelementptr inbounds %struct.OSQPMatrix_, ptr %17, i32 0, i32 0
  %19 = load ptr, ptr %18, align 8
  %20 = call ptr @triu_to_csc(ptr noundef %19)
  %21 = load ptr, ptr %4, align 8
  %22 = getelementptr inbounds %struct.OSQPMatrix_, ptr %21, i32 0, i32 0
  store ptr %20, ptr %22, align 8
  %23 = load ptr, ptr %4, align 8
  %24 = getelementptr inbounds %struct.OSQPMatrix_, ptr %23, i32 0, i32 0
  %25 = load ptr, ptr %24, align 8
  %26 = icmp ne ptr %25, null
  br i1 %26, label %29, label %27

27:                                               ; preds = %14
  %28 = load ptr, ptr %4, align 8
  call void @free(ptr noundef %28) #5
  store ptr null, ptr %2, align 8
  br label %35

29:                                               ; preds = %14
  %30 = load ptr, ptr %4, align 8
  store ptr %30, ptr %2, align 8
  br label %35

31:                                               ; preds = %1
  %32 = call i32 (ptr, ...) @printf(ptr noundef @.str, ptr noundef @__func__.OSQPMatrix_triu_to_symm)
  %33 = call i32 (ptr, ...) @printf(ptr noundef @.str.1)
  %34 = call i32 (ptr, ...) @printf(ptr noundef @.str.2)
  store ptr null, ptr %2, align 8
  br label %35

35:                                               ; preds = %31, %29, %27, %13
  %36 = load ptr, ptr %2, align 8
  ret ptr %36
}