; Function Attrs: nounwind uwtable
define noalias noundef ptr @OSQPMatrix_triu_to_symm(ptr nocapture noundef readonly %0) local_unnamed_addr #0 {
  %2 = getelementptr inbounds i8, ptr %0, i64 8
  %3 = load i32, ptr %2, align 8
  %4 = icmp eq i32 %3, 1
  br i1 %4, label %5, label %12

5:                                                ; preds = %1
  %6 = tail call noalias dereferenceable_or_null(16) ptr @malloc(i64 noundef 16) #8
  %.not = icmp eq ptr %6, null
  br i1 %.not, label %15, label %7

7:                                                ; preds = %5
  %8 = getelementptr inbounds i8, ptr %6, i64 8
  store i32 0, ptr %8, align 8
  %9 = load ptr, ptr %0, align 8
  %10 = tail call ptr @triu_to_csc(ptr noundef %9) #7
  store ptr %10, ptr %6, align 8
  %.not10 = icmp eq ptr %10, null
  br i1 %.not10, label %11, label %15

11:                                               ; preds = %7
  tail call void @free(ptr noundef nonnull %6) #7
  br label %15

12:                                               ; preds = %1
  %13 = tail call i32 (ptr, ...) @printf(ptr noundef nonnull dereferenceable(1) @.str, ptr noundef nonnull @__func__.OSQPMatrix_triu_to_symm)
  %14 = tail call i32 (ptr, ...) @printf(ptr noundef nonnull dereferenceable(1) @.str.1)
  %putchar = tail call i32 @putchar(i32 10)
  br label %15

15:                                               ; preds = %7, %5, %12, %11
  %.0 = phi ptr [ null, %11 ], [ null, %12 ], [ null, %5 ], [ %6, %7 ]
  ret ptr %.0
}